target datalayout = "e-m:e-p270:32:32-p271:32:32-p272:64:64-i64:64-i128:128-f80:128-n8:16:32:64-S128"
target triple = "x86_64-pc-linux-gnu"

%struct._object = type { %union.anon, ptr }
%union.anon = type { i64 }
%struct._typeobject = type { %struct.PyVarObject, ptr, i64, i64, ptr, i64, ptr, ptr, ptr, ptr, ptr, ptr, ptr, ptr, ptr, ptr, ptr, ptr, ptr, i64, ptr, ptr, ptr, ptr, i64, ptr, ptr, ptr, ptr, ptr, ptr, ptr, ptr, ptr, i64, ptr, ptr, ptr, ptr, ptr, ptr, ptr, ptr, ptr, ptr, ptr, i32, ptr, ptr, i8, i16 }
%struct.PyVarObject = type { %struct._object, i64 }
%struct._structmodulestate = type { ptr, ptr, ptr, ptr }
%struct.anon = type { i32, i32 }
%struct._formatdef = type { i8, i64, i64, ptr, ptr }

@PyExc_OverflowError = external global ptr, align 8
@.str.50 = private unnamed_addr constant [36 x i8] c"required argument is not an integer\00", align 1
@.str.51 = private unnamed_addr constant [40 x i8] c"'%c' format requires 0 <= number <= %zu\00", align 1
@.str.52 = private unnamed_addr constant [42 x i8] c"'%c' format requires %zd <= number <= %zd\00", align 1

; Function Attrs: alwaysinline nounwind uwtable
define internal i32 @_Py_IsImmortal(ptr noundef %0) #4 {
  %2 = alloca ptr, align 8
  store ptr %0, ptr %2, align 8, !tbaa !3
  %3 = load ptr, ptr %2, align 8, !tbaa !3
  %4 = getelementptr inbounds nuw %struct._object, ptr %3, i32 0, i32 0
  %5 = getelementptr inbounds nuw %struct.anon, ptr %4, i32 0, i32 0
  %6 = load i32, ptr %5, align 8, !tbaa !32
  %7 = icmp slt i32 %6, 0
  %8 = zext i1 %7 to i32
  ret i32 %8
}

; Function Attrs: alwaysinline nounwind uwtable
define internal void @Py_INCREF(ptr noundef %0) #4 {
  %2 = alloca ptr, align 8
  %3 = alloca i32, align 4
  %4 = alloca i32, align 4
  store ptr %0, ptr %2, align 8, !tbaa !3
  call void @llvm.lifetime.start.p0(i64 4, ptr %3) #8
  %5 = load ptr, ptr %2, align 8, !tbaa !3
  %6 = getelementptr inbounds nuw %struct._object, ptr %5, i32 0, i32 0
  %7 = getelementptr inbounds nuw %struct.anon, ptr %6, i32 0, i32 0
  %8 = load i32, ptr %7, align 8, !tbaa !32
  store i32 %8, ptr %3, align 4, !tbaa !11
  %9 = load i32, ptr %3, align 4, !tbaa !11
  %10 = icmp slt i32 %9, 0
  br i1 %10, label %11, label %12

11:                                               ; preds = %1
  store i32 1, ptr %4, align 4
  br label %18

12:                                               ; preds = %1
  %13 = load i32, ptr %3, align 4, !tbaa !11
  %14 = add i32 %13, 1
  %15 = load ptr, ptr %2, align 8, !tbaa !3
  %16 = getelementptr inbounds nuw %struct._object, ptr %15, i32 0, i32 0
  %17 = getelementptr inbounds nuw %struct.anon, ptr %16, i32 0, i32 0
  store i32 %14, ptr %17, align 8, !tbaa !32
  store i32 0, ptr %4, align 4
  br label %18

18:                                               ; preds = %12, %11
  call void @llvm.lifetime.end.p0(i64 4, ptr %3) #8
  %19 = load i32, ptr %4, align 4
  switch i32 %19, label %21 [
    i32 0, label %20
    i32 1, label %20
  ]

20:                                               ; preds = %18, %18
  ret void

21:                                               ; preds = %18
  unreachable
}

; Function Attrs: inlinehint nounwind uwtable
define internal i32 @PyType_HasFeature(ptr noundef %0, i64 noundef %1) #2 {
  %3 = alloca ptr, align 8
  %4 = alloca i64, align 8
  %5 = alloca i64, align 8
  store ptr %0, ptr %3, align 8, !tbaa !59
  store i64 %1, ptr %4, align 8, !tbaa !18
  call void @llvm.lifetime.start.p0(i64 8, ptr %5) #8
  %6 = load ptr, ptr %3, align 8, !tbaa !59
  %7 = getelementptr inbounds nuw %struct._typeobject, ptr %6, i32 0, i32 19
  %8 = load i64, ptr %7, align 8, !tbaa !60
  store i64 %8, ptr %5, align 8, !tbaa !18
  %9 = load i64, ptr %5, align 8, !tbaa !18
  %10 = load i64, ptr %4, align 8, !tbaa !18
  %11 = and i64 %9, %10
  %12 = icmp ne i64 %11, 0
  %13 = zext i1 %12 to i32
  call void @llvm.lifetime.end.p0(i64 8, ptr %5) #8
  ret i32 %13
}

; Function Attrs: inlinehint nounwind uwtable
define internal ptr @_Py_TYPE(ptr noundef %0) #2 {
  %2 = alloca ptr, align 8
  store ptr %0, ptr %2, align 8, !tbaa !3
  %3 = load ptr, ptr %2, align 8, !tbaa !3
  %4 = getelementptr inbounds nuw %struct._object, ptr %3, i32 0, i32 1
  %5 = load ptr, ptr %4, align 8, !tbaa !41
  ret ptr %5
}

; Function Attrs: alwaysinline nounwind uwtable
define internal void @Py_DECREF(ptr noundef %0) #4 {
  %2 = alloca ptr, align 8
  store ptr %0, ptr %2, align 8, !tbaa !3
  %3 = load ptr, ptr %2, align 8, !tbaa !3
  %4 = call i32 @_Py_IsImmortal(ptr noundef %3)
  %5 = icmp ne i32 %4, 0
  br i1 %5, label %6, label %7

6:                                                ; preds = %1
  br label %16

7:                                                ; preds = %1
  %8 = load ptr, ptr %2, align 8, !tbaa !3
  %9 = getelementptr inbounds nuw %struct._object, ptr %8, i32 0, i32 0
  %10 = getelementptr inbounds nuw %struct.anon, ptr %9, i32 0, i32 0
  %11 = load i32, ptr %10, align 8, !tbaa !32
  %12 = add i32 %11, -1
  store i32 %12, ptr %10, align 8, !tbaa !32
  %13 = icmp eq i32 %12, 0
  br i1 %13, label %14, label %16

14:                                               ; preds = %7
  %15 = load ptr, ptr %2, align 8, !tbaa !3
  call void @_Py_Dealloc(ptr noundef %15)
  br label %16

16:                                               ; preds = %6, %14, %7
  ret void
}

; Function Attrs: nounwind uwtable
define internal ptr @get_pylong(ptr noundef %0, ptr noundef %1) #0 {
  %3 = alloca ptr, align 8
  %4 = alloca ptr, align 8
  %5 = alloca ptr, align 8
  store ptr %0, ptr %4, align 8, !tbaa !8
  store ptr %1, ptr %5, align 8, !tbaa !3
  %6 = load ptr, ptr %5, align 8, !tbaa !3
  %7 = call ptr @_Py_TYPE(ptr noundef %6)
  %8 = call i32 @PyType_HasFeature(ptr noundef %7, i64 noundef 16777216)
  %9 = icmp ne i32 %8, 0
  br i1 %9, label %26, label %10

10:                                               ; preds = %2
  %11 = load ptr, ptr %5, align 8, !tbaa !3
  %12 = call i32 @PyIndex_Check(ptr noundef %11)
  %13 = icmp ne i32 %12, 0
  br i1 %13, label %14, label %21

14:                                               ; preds = %10
  %15 = load ptr, ptr %5, align 8, !tbaa !3
  %16 = call ptr @_PyNumber_Index(ptr noundef %15)
  store ptr %16, ptr %5, align 8, !tbaa !3
  %17 = load ptr, ptr %5, align 8, !tbaa !3
  %18 = icmp eq ptr %17, null
  br i1 %18, label %19, label %20

19:                                               ; preds = %14
  store ptr null, ptr %3, align 8
  br label %30

20:                                               ; preds = %14
  br label %25

21:                                               ; preds = %10
  %22 = load ptr, ptr %4, align 8, !tbaa !8
  %23 = getelementptr inbounds nuw %struct._structmodulestate, ptr %22, i32 0, i32 3
  %24 = load ptr, ptr %23, align 8, !tbaa !15
  call void @PyErr_SetString(ptr noundef %24, ptr noundef @.str.50)
  store ptr null, ptr %3, align 8
  br label %30

25:                                               ; preds = %20
  br label %28

26:                                               ; preds = %2
  %27 = load ptr, ptr %5, align 8, !tbaa !3
  call void @Py_INCREF(ptr noundef %27)
  br label %28

28:                                               ; preds = %26, %25
  %29 = load ptr, ptr %5, align 8, !tbaa !3
  store ptr %29, ptr %3, align 8
  br label %30

30:                                               ; preds = %28, %21, %19
  %31 = load ptr, ptr %3, align 8
  ret ptr %31
}

; Function Attrs: nounwind uwtable
define internal i32 @_range_error(ptr noundef %0, ptr noundef %1, i32 noundef %2) #0 {
  %4 = alloca ptr, align 8
  %5 = alloca ptr, align 8
  %6 = alloca i32, align 4
  %7 = alloca i64, align 8
  %8 = alloca i64, align 8
  store ptr %0, ptr %4, align 8, !tbaa !8
  store ptr %1, ptr %5, align 8, !tbaa !49
  store i32 %2, ptr %6, align 4, !tbaa !11
  call void @llvm.lifetime.start.p0(i64 8, ptr %7) #8
  %9 = load ptr, ptr %5, align 8, !tbaa !49
  %10 = getelementptr inbounds nuw %struct._formatdef, ptr %9, i32 0, i32 1
  %11 = load i64, ptr %10, align 8, !tbaa !75
  %12 = sub i64 8, %11
  %13 = mul i64 %12, 8
  %14 = lshr i64 -1, %13
  store i64 %14, ptr %7, align 8, !tbaa !18
  %15 = load i32, ptr %6, align 4, !tbaa !11
  %16 = icmp ne i32 %15, 0
  br i1 %16, label %17, label %27

17:                                               ; preds = %3
  %18 = load ptr, ptr %4, align 8, !tbaa !8
  %19 = getelementptr inbounds nuw %struct._structmodulestate, ptr %18, i32 0, i32 3
  %20 = load ptr, ptr %19, align 8, !tbaa !15
  %21 = load ptr, ptr %5, align 8, !tbaa !49
  %22 = getelementptr inbounds nuw %struct._formatdef, ptr %21, i32 0, i32 0
  %23 = load i8, ptr %22, align 8, !tbaa !52
  %24 = sext i8 %23 to i32
  %25 = load i64, ptr %7, align 8, !tbaa !18
  %26 = call ptr (ptr, ptr, ...) @PyErr_Format(ptr noundef %20, ptr noundef @.str.51, i32 noundef %24, i64 noundef %25)
  br label %41

27:                                               ; preds = %3
  call void @llvm.lifetime.start.p0(i64 8, ptr %8) #8
  %28 = load i64, ptr %7, align 8, !tbaa !18
  %29 = lshr i64 %28, 1
  store i64 %29, ptr %8, align 8, !tbaa !18
  %30 = load ptr, ptr %4, align 8, !tbaa !8
  %31 = getelementptr inbounds nuw %struct._structmodulestate, ptr %30, i32 0, i32 3
  %32 = load ptr, ptr %31, align 8, !tbaa !15
  %33 = load ptr, ptr %5, align 8, !tbaa !49
  %34 = getelementptr inbounds nuw %struct._formatdef, ptr %33, i32 0, i32 0
  %35 = load i8, ptr %34, align 8, !tbaa !52
  %36 = sext i8 %35 to i32
  %37 = load i64, ptr %8, align 8, !tbaa !18
  %38 = xor i64 %37, -1
  %39 = load i64, ptr %8, align 8, !tbaa !18
  %40 = call ptr (ptr, ptr, ...) @PyErr_Format(ptr noundef %32, ptr noundef @.str.52, i32 noundef %36, i64 noundef %38, i64 noundef %39)
  call void @llvm.lifetime.end.p0(i64 8, ptr %8) #8
  br label %41

41:                                               ; preds = %27, %17
  call void @llvm.lifetime.end.p0(i64 8, ptr %7) #8
  ret i32 -1
}

; Function Attrs: nounwind uwtable
define internal i32 @get_size_t(ptr noundef %0, ptr noundef %1, ptr noundef %2) #0 {
  %4 = alloca i32, align 4
  %5 = alloca ptr, align 8
  %6 = alloca ptr, align 8
  %7 = alloca ptr, align 8
  %8 = alloca i64, align 8
  %9 = alloca i32, align 4
  store ptr %0, ptr %5, align 8, !tbaa !8
  store ptr %1, ptr %6, align 8, !tbaa !3
  store ptr %2, ptr %7, align 8, !tbaa !104
  call void @llvm.lifetime.start.p0(i64 8, ptr %8) #8
  %10 = load ptr, ptr %5, align 8, !tbaa !8
  %11 = load ptr, ptr %6, align 8, !tbaa !3
  %12 = call ptr @get_pylong(ptr noundef %10, ptr noundef %11)
  store ptr %12, ptr %6, align 8, !tbaa !3
  %13 = load ptr, ptr %6, align 8, !tbaa !3
  %14 = icmp eq ptr %13, null
  br i1 %14, label %15, label %16

15:                                               ; preds = %3
  store i32 -1, ptr %4, align 4
  store i32 1, ptr %9, align 4
  br label %29

16:                                               ; preds = %3
  %17 = load ptr, ptr %6, align 8, !tbaa !3
  %18 = call i64 @PyLong_AsSize_t(ptr noundef %17)
  store i64 %18, ptr %8, align 8, !tbaa !18
  %19 = load ptr, ptr %6, align 8, !tbaa !3
  call void @Py_DECREF(ptr noundef %19)
  %20 = load i64, ptr %8, align 8, !tbaa !18
  %21 = icmp eq i64 %20, -1
  br i1 %21, label %22, label %26

22:                                               ; preds = %16
  %23 = call ptr @PyErr_Occurred()
  %24 = icmp ne ptr %23, null
  br i1 %24, label %25, label %26

25:                                               ; preds = %22
  store i32 -1, ptr %4, align 4
  store i32 1, ptr %9, align 4
  br label %29

26:                                               ; preds = %22, %16
  %27 = load i64, ptr %8, align 8, !tbaa !18
  %28 = load ptr, ptr %7, align 8, !tbaa !104
  store i64 %27, ptr %28, align 8, !tbaa !18
  store i32 0, ptr %4, align 4
  store i32 1, ptr %9, align 4
  br label %29

29:                                               ; preds = %26, %25, %15
  call void @llvm.lifetime.end.p0(i64 8, ptr %8) #8
  %30 = load i32, ptr %4, align 4
  ret i32 %30
}

; Function Attrs: nounwind uwtable
define internal i32 @np_size_t(ptr noundef %0, ptr noundef %1, ptr noundef %2, ptr noundef %3) #0 {
  %5 = alloca i32, align 4
  %6 = alloca ptr, align 8
  %7 = alloca ptr, align 8
  %8 = alloca ptr, align 8
  %9 = alloca ptr, align 8
  %10 = alloca i64, align 8
  %11 = alloca i32, align 4
  store ptr %0, ptr %6, align 8, !tbaa !8
  store ptr %1, ptr %7, align 8, !tbaa !43
  store ptr %2, ptr %8, align 8, !tbaa !3
  store ptr %3, ptr %9, align 8, !tbaa !49
  call void @llvm.lifetime.start.p0(i64 8, ptr %10) #8
  %12 = load ptr, ptr %6, align 8, !tbaa !8
  %13 = load ptr, ptr %8, align 8, !tbaa !3
  %14 = call i32 @get_size_t(ptr noundef %12, ptr noundef %13, ptr noundef %10)
  %15 = icmp slt i32 %14, 0
  br i1 %15, label %16, label %25

16:                                               ; preds = %4
  %17 = load ptr, ptr @PyExc_OverflowError, align 8, !tbaa !3
  %18 = call i32 @PyErr_ExceptionMatches(ptr noundef %17)
  %19 = icmp ne i32 %18, 0
  br i1 %19, label %20, label %24

20:                                               ; preds = %16
  %21 = load ptr, ptr %6, align 8, !tbaa !8
  %22 = load ptr, ptr %9, align 8, !tbaa !49
  %23 = call i32 @_range_error(ptr noundef %21, ptr noundef %22, i32 noundef 1)
  store i32 %23, ptr %5, align 4
  store i32 1, ptr %11, align 4
  br label %27

24:                                               ; preds = %16
  store i32 -1, ptr %5, align 4
  store i32 1, ptr %11, align 4
  br label %27

25:                                               ; preds = %4
  %26 = load ptr, ptr %7, align 8, !tbaa !43
  call void @llvm.memcpy.p0.p0.i64(ptr align 1 %26, ptr align 8 %10, i64 8, i1 false)
  store i32 0, ptr %5, align 4
  store i32 1, ptr %11, align 4
  br label %27

27:                                               ; preds = %25, %24, %20
  call void @llvm.lifetime.end.p0(i64 8, ptr %10) #8
  %28 = load i32, ptr %5, align 4
  ret i32 %28
}